target datalayout = "e-m:e-p270:32:32-p271:32:32-p272:64:64-i64:64-i128:128-f80:128-n8:16:32:64-S128"
target triple = "x86_64-pc-linux-gnu"

%"struct.folly::TimeoutQueue::Event" = type { i64, i64, i64, %"class.std::function" }
%"class.std::function" = type { %"class.std::_Function_base", ptr }
%"class.std::_Function_base" = type { %"union.std::_Any_data", ptr }
%"union.std::_Any_data" = type { %"union.std::_Nocopy_types" }
%"union.std::_Nocopy_types" = type { { i64, i64 } }
%"class.folly::TimeoutQueue" = type { %"class.boost::multi_index::multi_index_container", i64 }
%"class.boost::multi_index::multi_index_container" = type { [8 x i8], %"struct.boost::multi_index::detail::header_holder", [8 x i8], i64 }
%"struct.boost::multi_index::detail::header_holder" = type { ptr }
%"struct.boost::multi_index::detail::pod_value_holder" = type { %"struct.boost::detail::aligned_storage::aligned_storage_imp" }
%"struct.boost::detail::aligned_storage::aligned_storage_imp" = type { %"union.boost::detail::aligned_storage::aligned_storage_imp<56, 8>::data_t" }
%"union.boost::detail::aligned_storage::aligned_storage_imp<56, 8>::data_t" = type { [56 x i8] }
%"struct.boost::multi_index::detail::ordered_index_node_compressed_base" = type { i64, ptr, ptr }
%"struct.boost::is_same" = type { i8 }
%"class.boost::multi_index::detail::bidir_node_iterator.10" = type { ptr }

@_ZZNK5boost17integral_constantIbLb1EEcvRKN4mpl_5bool_ILb1EEEEvE5pdata = linkonce_odr global ptr @_ZZNK5boost17integral_constantIbLb1EEcvRKN4mpl_5bool_ILb1EEEEvE4data, comdat, align 8

; Function Attrs: inlinehint mustprogress nounwind uwtable
define linkonce_odr noundef ptr @_ZN5boost11multi_index6detail7raw_ptrIPNS1_23ordered_index_node_implINS1_19null_augment_policyESaIcEEEEET_RKS8_N4mpl_5bool_ILb1EEE(ptr noundef nonnull align 8 dereferenceable(8) %0) #3 comdat {
  %2 = alloca ptr, align 8
  store ptr %0, ptr %2, align 8, !tbaa !100
  %3 = load ptr, ptr %2, align 8, !tbaa !100
  %4 = load ptr, ptr %3, align 8, !tbaa !77
  ret ptr %4
}

; Function Attrs: mustprogress nounwind uwtable
define linkonce_odr noundef nonnull align 1 dereferenceable(1) ptr @_ZNK5boost17integral_constantIbLb1EEcvRKN4mpl_5bool_ILb1EEEEv(ptr noundef nonnull align 1 dereferenceable(1) %0) #2 comdat align 2 {
  %2 = alloca ptr, align 8
  store ptr %0, ptr %2, align 8, !tbaa !108
  %3 = load ptr, ptr @_ZZNK5boost17integral_constantIbLb1EEcvRKN4mpl_5bool_ILb1EEEEvE5pdata, align 8, !tbaa !110
  ret ptr %3
}

; Function Attrs: mustprogress nounwind uwtable
define linkonce_odr noundef ptr @_ZNK5boost11multi_index21multi_index_containerIN5folly12TimeoutQueue5EventENS0_10indexed_byINS0_14ordered_uniqueINS0_6memberIS4_lXadL_ZNS4_2idEEEEEN4mpl_2naESA_EENS0_18ordered_non_uniqueINS7_IS4_lXadL_ZNS4_10expirationEEEEESA_SA_EESA_SA_SA_SA_SA_SA_SA_SA_SA_SA_SA_SA_SA_SA_SA_SA_SA_SA_EESaIS4_EE6headerEv(ptr noundef nonnull align 8 dereferenceable(32) %0) #2 comdat align 2 {
  %2 = alloca ptr, align 8
  store ptr %0, ptr %2, align 8, !tbaa !62
  %3 = load ptr, ptr %2, align 8
  %4 = getelementptr inbounds i8, ptr %3, i64 8
  %5 = getelementptr inbounds nuw %"struct.boost::multi_index::detail::header_holder", ptr %4, i32 0, i32 0
  %6 = load ptr, ptr %5, align 8, !tbaa !122
  ret ptr %6
}

; Function Attrs: inlinehint mustprogress uwtable
define linkonce_odr noundef ptr @_ZN5boost11multi_index6detail7raw_ptrIPNS1_23ordered_index_node_implINS1_19null_augment_policyESaIcEEES7_EET_RKT0_(ptr noundef nonnull align 8 dereferenceable(8) %0) #5 comdat {
  %2 = alloca ptr, align 8
  %3 = alloca %"struct.boost::is_same", align 1
  store ptr %0, ptr %2, align 8, !tbaa !100
  %4 = load ptr, ptr %2, align 8, !tbaa !100
  call void @llvm.lifetime.start.p0(i64 1, ptr %3) #12
  %5 = call noundef nonnull align 1 dereferenceable(1) ptr @_ZNK5boost17integral_constantIbLb1EEcvRKN4mpl_5bool_ILb1EEEEv(ptr noundef nonnull align 1 dereferenceable(1) %3)
  %6 = call noundef ptr @_ZN5boost11multi_index6detail7raw_ptrIPNS1_23ordered_index_node_implINS1_19null_augment_policyESaIcEEEEET_RKS8_N4mpl_5bool_ILb1EEE(ptr noundef nonnull align 8 dereferenceable(8) %4)
  call void @llvm.lifetime.end.p0(i64 1, ptr %3) #12
  ret ptr %6
}

; Function Attrs: mustprogress nounwind uwtable
define linkonce_odr noundef nonnull align 8 dereferenceable(8) ptr @_ZN5boost11multi_index6detail34ordered_index_node_compressed_baseINS1_19null_augment_policyESaIcEE4leftEv(ptr noundef nonnull align 8 dereferenceable(24) %0) #2 comdat align 2 {
  %2 = alloca ptr, align 8
  store ptr %0, ptr %2, align 8, !tbaa !98
  %3 = load ptr, ptr %2, align 8
  %4 = getelementptr inbounds nuw %"struct.boost::multi_index::detail::ordered_index_node_compressed_base", ptr %3, i32 0, i32 1
  ret ptr %4
}

; Function Attrs: mustprogress uwtable
define linkonce_odr noundef ptr @_ZNK5boost11multi_index6detail10index_baseIN5folly12TimeoutQueue5EventENS0_10indexed_byINS0_14ordered_uniqueINS0_6memberIS5_lXadL_ZNS5_2idEEEEEN4mpl_2naESB_EENS0_18ordered_non_uniqueINS8_IS5_lXadL_ZNS5_10expirationEEEEESB_SB_EESB_SB_SB_SB_SB_SB_SB_SB_SB_SB_SB_SB_SB_SB_SB_SB_SB_SB_EESaIS5_EE12final_headerEv(ptr noundef nonnull align 1 dereferenceable(1) %0) #0 comdat align 2 {
  %2 = alloca ptr, align 8
  store ptr %0, ptr %2, align 8, !tbaa !47
  %3 = load ptr, ptr %2, align 8
  %4 = call noundef nonnull align 8 dereferenceable(32) ptr @_ZNK5boost11multi_index6detail10index_baseIN5folly12TimeoutQueue5EventENS0_10indexed_byINS0_14ordered_uniqueINS0_6memberIS5_lXadL_ZNS5_2idEEEEEN4mpl_2naESB_EENS0_18ordered_non_uniqueINS8_IS5_lXadL_ZNS5_10expirationEEEEESB_SB_EESB_SB_SB_SB_SB_SB_SB_SB_SB_SB_SB_SB_SB_SB_SB_SB_SB_SB_EESaIS5_EE5finalEv(ptr noundef nonnull align 1 dereferenceable(1) %3)
  %5 = call noundef ptr @_ZNK5boost11multi_index21multi_index_containerIN5folly12TimeoutQueue5EventENS0_10indexed_byINS0_14ordered_uniqueINS0_6memberIS4_lXadL_ZNS4_2idEEEEEN4mpl_2naESA_EENS0_18ordered_non_uniqueINS7_IS4_lXadL_ZNS4_10expirationEEEEESA_SA_EESA_SA_SA_SA_SA_SA_SA_SA_SA_SA_SA_SA_SA_SA_SA_SA_SA_SA_EESaIS4_EE6headerEv(ptr noundef nonnull align 8 dereferenceable(32) %4)
  ret ptr %5
}

; Function Attrs: mustprogress nounwind uwtable
define linkonce_odr noundef nonnull align 8 dereferenceable(56) ptr @_ZN5boost11multi_index6detail15index_node_baseIN5folly12TimeoutQueue5EventESaIS5_EE5valueEv(ptr noundef nonnull align 8 dereferenceable(56) %0) #2 comdat align 2 {
  %2 = alloca ptr, align 8
  store ptr %0, ptr %2, align 8, !tbaa !92
  %3 = load ptr, ptr %2, align 8
  %4 = getelementptr inbounds nuw %"struct.boost::multi_index::detail::pod_value_holder", ptr %3, i32 0, i32 0
  ret ptr %4
}

; Function Attrs: mustprogress nounwind uwtable
define linkonce_odr void @_ZN5boost11multi_index6detail19bidir_node_iteratorINS1_18ordered_index_nodeINS1_19null_augment_policyENS1_15index_node_baseIN5folly12TimeoutQueue5EventESaIS8_EEEEEEC2EPSB_(ptr noundef nonnull align 8 dereferenceable(8) %0, ptr noundef %1) unnamed_addr #2 comdat align 2 {
  %3 = alloca ptr, align 8
  %4 = alloca ptr, align 8
  store ptr %0, ptr %3, align 8, !tbaa !131
  store ptr %1, ptr %4, align 8, !tbaa !113
  %5 = load ptr, ptr %3, align 8
  %6 = getelementptr inbounds nuw %"class.boost::multi_index::detail::bidir_node_iterator.10", ptr %5, i32 0, i32 0
  %7 = load ptr, ptr %4, align 8, !tbaa !113
  store ptr %7, ptr %6, align 8, !tbaa !133
  ret void
}

; Function Attrs: mustprogress uwtable
define linkonce_odr noundef ptr @_ZN5boost11multi_index6detail18ordered_index_nodeINS1_19null_augment_policyENS1_15index_node_baseIN5folly12TimeoutQueue5EventESaIS7_EEEE9from_implEPNS1_23ordered_index_node_implIS3_SaIcEEE(ptr noundef %0) #0 comdat align 2 {
  %2 = alloca ptr, align 8
  store ptr %0, ptr %2, align 8, !tbaa !77
  %3 = call noundef ptr @_ZN5boost11multi_index6detail7raw_ptrIPNS1_23ordered_index_node_implINS1_19null_augment_policyESaIcEEES7_EET_RKT0_(ptr noundef nonnull align 8 dereferenceable(8) %2)
  %4 = icmp eq ptr %3, null
  br i1 %4, label %7, label %5

5:                                                ; preds = %1
  %6 = getelementptr inbounds i8, ptr %3, i64 -56
  br label %8

7:                                                ; preds = %1
  br label %8

8:                                                ; preds = %7, %5
  %9 = phi ptr [ %6, %5 ], [ null, %7 ]
  ret ptr %9
}

; Function Attrs: mustprogress nounwind uwtable
define linkonce_odr noundef nonnull align 8 dereferenceable(8) ptr @_ZN5boost11multi_index6detail18ordered_index_nodeINS1_19null_augment_policyENS1_15index_node_baseIN5folly12TimeoutQueue5EventESaIS7_EEEE4leftEv(ptr noundef nonnull align 8 dereferenceable(80) %0) #2 comdat align 2 {
  %2 = alloca ptr, align 8
  store ptr %0, ptr %2, align 8, !tbaa !113
  %3 = load ptr, ptr %2, align 8
  %4 = getelementptr inbounds i8, ptr %3, i64 56
  %5 = call noundef nonnull align 8 dereferenceable(8) ptr @_ZN5boost11multi_index6detail34ordered_index_node_compressed_baseINS1_19null_augment_policyESaIcEE4leftEv(ptr noundef nonnull align 8 dereferenceable(24) %4)
  ret ptr %5
}

; Function Attrs: mustprogress uwtable
define linkonce_odr noundef ptr @_ZNK5boost11multi_index6detail18ordered_index_implINS0_6memberIN5folly12TimeoutQueue5EventElXadL_ZNS6_10expirationEEEEESt4lessIlENS1_9nth_layerILi2ES6_NS0_10indexed_byINS0_14ordered_uniqueINS3_IS6_lXadL_ZNS6_2idEEEEEN4mpl_2naESF_EENS0_18ordered_non_uniqueIS7_SF_SF_EESF_SF_SF_SF_SF_SF_SF_SF_SF_SF_SF_SF_SF_SF_SF_SF_SF_SF_EESaIS6_EEENS_3mpl7vector0ISF_EENS1_22ordered_non_unique_tagENS1_19null_augment_policyEE6headerEv(ptr noundef nonnull align 1 dereferenceable(2) %0) #0 comdat align 2 {
  %2 = alloca ptr, align 8
  store ptr %0, ptr %2, align 8, !tbaa !82
  %3 = load ptr, ptr %2, align 8
  %4 = call noundef ptr @_ZNK5boost11multi_index6detail10index_baseIN5folly12TimeoutQueue5EventENS0_10indexed_byINS0_14ordered_uniqueINS0_6memberIS5_lXadL_ZNS5_2idEEEEEN4mpl_2naESB_EENS0_18ordered_non_uniqueINS8_IS5_lXadL_ZNS5_10expirationEEEEESB_SB_EESB_SB_SB_SB_SB_SB_SB_SB_SB_SB_SB_SB_SB_SB_SB_SB_SB_SB_EESaIS5_EE12final_headerEv(ptr noundef nonnull align 1 dereferenceable(1) %3)
  ret ptr %4
}

; Function Attrs: mustprogress nounwind uwtable
define linkonce_odr noundef zeroext i1 @_ZNK5boost11multi_index21multi_index_containerIN5folly12TimeoutQueue5EventENS0_10indexed_byINS0_14ordered_uniqueINS0_6memberIS4_lXadL_ZNS4_2idEEEEEN4mpl_2naESA_EENS0_18ordered_non_uniqueINS7_IS4_lXadL_ZNS4_10expirationEEEEESA_SA_EESA_SA_SA_SA_SA_SA_SA_SA_SA_SA_SA_SA_SA_SA_SA_SA_SA_SA_EESaIS4_EE6empty_Ev(ptr noundef nonnull align 8 dereferenceable(32) %0) #2 comdat align 2 {
  %2 = alloca ptr, align 8
  store ptr %0, ptr %2, align 8, !tbaa !62
  %3 = load ptr, ptr %2, align 8
  %4 = getelementptr inbounds nuw %"class.boost::multi_index::multi_index_container", ptr %3, i32 0, i32 3
  %5 = load i64, ptr %4, align 8, !tbaa !64
  %6 = icmp eq i64 %5, 0
  ret i1 %6
}

; Function Attrs: mustprogress nounwind uwtable
define linkonce_odr noundef nonnull align 8 dereferenceable(32) ptr @_ZNK5boost11multi_index6detail10index_baseIN5folly12TimeoutQueue5EventENS0_10indexed_byINS0_14ordered_uniqueINS0_6memberIS5_lXadL_ZNS5_2idEEEEEN4mpl_2naESB_EENS0_18ordered_non_uniqueINS8_IS5_lXadL_ZNS5_10expirationEEEEESB_SB_EESB_SB_SB_SB_SB_SB_SB_SB_SB_SB_SB_SB_SB_SB_SB_SB_SB_SB_EESaIS5_EE5finalEv(ptr noundef nonnull align 1 dereferenceable(1) %0) #2 comdat align 2 {
  %2 = alloca ptr, align 8
  store ptr %0, ptr %2, align 8, !tbaa !47
  %3 = load ptr, ptr %2, align 8
  %4 = getelementptr inbounds i8, ptr %3, i64 -16
  ret ptr %4
}

; Function Attrs: inlinehint mustprogress nounwind uwtable
define linkonce_odr noundef ptr @_ZN5boost9addressofIKN5folly12TimeoutQueue5EventEEEPT_RS5_(ptr noundef nonnull align 8 dereferenceable(56) %0) #3 comdat {
  %2 = alloca ptr, align 8
  store ptr %0, ptr %2, align 8, !tbaa !38
  %3 = load ptr, ptr %2, align 8, !tbaa !38
  ret ptr %3
}

; Function Attrs: mustprogress nounwind uwtable
define linkonce_odr noundef nonnull align 8 dereferenceable(56) ptr @_ZNK5boost11multi_index6detail19bidir_node_iteratorINS1_18ordered_index_nodeINS1_19null_augment_policyENS1_15index_node_baseIN5folly12TimeoutQueue5EventESaIS8_EEEEEEdeEv(ptr noundef nonnull align 8 dereferenceable(8) %0) #2 comdat align 2 {
  %2 = alloca ptr, align 8
  store ptr %0, ptr %2, align 8, !tbaa !131
  %3 = load ptr, ptr %2, align 8
  %4 = getelementptr inbounds nuw %"class.boost::multi_index::detail::bidir_node_iterator.10", ptr %3, i32 0, i32 0
  %5 = load ptr, ptr %4, align 8, !tbaa !133
  %6 = call noundef nonnull align 8 dereferenceable(56) ptr @_ZN5boost11multi_index6detail15index_node_baseIN5folly12TimeoutQueue5EventESaIS5_EE5valueEv(ptr noundef nonnull align 8 dereferenceable(56) %5)
  ret ptr %6
}

; Function Attrs: mustprogress uwtable
define linkonce_odr ptr @_ZNK5boost11multi_index6detail18ordered_index_implINS0_6memberIN5folly12TimeoutQueue5EventElXadL_ZNS6_10expirationEEEEESt4lessIlENS1_9nth_layerILi2ES6_NS0_10indexed_byINS0_14ordered_uniqueINS3_IS6_lXadL_ZNS6_2idEEEEEN4mpl_2naESF_EENS0_18ordered_non_uniqueIS7_SF_SF_EESF_SF_SF_SF_SF_SF_SF_SF_SF_SF_SF_SF_SF_SF_SF_SF_SF_SF_EESaIS6_EEENS_3mpl7vector0ISF_EENS1_22ordered_non_unique_tagENS1_19null_augment_policyEE13make_iteratorEPNS1_18ordered_index_nodeISQ_NS1_15index_node_baseIS6_SK_EEEE(ptr noundef nonnull align 1 dereferenceable(2) %0, ptr noundef %1) #0 comdat align 2 {
  %3 = alloca %"class.boost::multi_index::detail::bidir_node_iterator.10", align 8
  %4 = alloca ptr, align 8
  %5 = alloca ptr, align 8
  store ptr %0, ptr %4, align 8, !tbaa !82
  store ptr %1, ptr %5, align 8, !tbaa !113
  %6 = load ptr, ptr %5, align 8, !tbaa !113
  call void @_ZN5boost11multi_index6detail19bidir_node_iteratorINS1_18ordered_index_nodeINS1_19null_augment_policyENS1_15index_node_baseIN5folly12TimeoutQueue5EventESaIS8_EEEEEEC2EPSB_(ptr noundef nonnull align 8 dereferenceable(8) %3, ptr noundef %6)
  %7 = getelementptr inbounds nuw %"class.boost::multi_index::detail::bidir_node_iterator.10", ptr %3, i32 0, i32 0
  %8 = load ptr, ptr %7, align 8
  ret ptr %8
}

; Function Attrs: mustprogress uwtable
define linkonce_odr noundef ptr @_ZNK5boost11multi_index6detail18ordered_index_implINS0_6memberIN5folly12TimeoutQueue5EventElXadL_ZNS6_10expirationEEEEESt4lessIlENS1_9nth_layerILi2ES6_NS0_10indexed_byINS0_14ordered_uniqueINS3_IS6_lXadL_ZNS6_2idEEEEEN4mpl_2naESF_EENS0_18ordered_non_uniqueIS7_SF_SF_EESF_SF_SF_SF_SF_SF_SF_SF_SF_SF_SF_SF_SF_SF_SF_SF_SF_SF_EESaIS6_EEENS_3mpl7vector0ISF_EENS1_22ordered_non_unique_tagENS1_19null_augment_policyEE8leftmostEv(ptr noundef nonnull align 1 dereferenceable(2) %0) #0 comdat align 2 {
  %2 = alloca ptr, align 8
  store ptr %0, ptr %2, align 8, !tbaa !82
  %3 = load ptr, ptr %2, align 8
  %4 = call noundef ptr @_ZNK5boost11multi_index6detail18ordered_index_implINS0_6memberIN5folly12TimeoutQueue5EventElXadL_ZNS6_10expirationEEEEESt4lessIlENS1_9nth_layerILi2ES6_NS0_10indexed_byINS0_14ordered_uniqueINS3_IS6_lXadL_ZNS6_2idEEEEEN4mpl_2naESF_EENS0_18ordered_non_uniqueIS7_SF_SF_EESF_SF_SF_SF_SF_SF_SF_SF_SF_SF_SF_SF_SF_SF_SF_SF_SF_SF_EESaIS6_EEENS_3mpl7vector0ISF_EENS1_22ordered_non_unique_tagENS1_19null_augment_policyEE6headerEv(ptr noundef nonnull align 1 dereferenceable(2) %3)
  %5 = call noundef nonnull align 8 dereferenceable(8) ptr @_ZN5boost11multi_index6detail18ordered_index_nodeINS1_19null_augment_policyENS1_15index_node_baseIN5folly12TimeoutQueue5EventESaIS7_EEEE4leftEv(ptr noundef nonnull align 8 dereferenceable(80) %4)
  %6 = load ptr, ptr %5, align 8, !tbaa !77
  %7 = call noundef ptr @_ZN5boost11multi_index6detail18ordered_index_nodeINS1_19null_augment_policyENS1_15index_node_baseIN5folly12TimeoutQueue5EventESaIS7_EEEE9from_implEPNS1_23ordered_index_node_implIS3_SaIcEEE(ptr noundef %6)
  ret ptr %7
}

; Function Attrs: noinline noreturn nounwind uwtable
define linkonce_odr hidden void @__clang_call_terminate(ptr noundef %0) #6 comdat {
  %2 = call ptr @__cxa_begin_catch(ptr %0) #12
  call void @_ZSt9terminatev() #14
  unreachable
}

; Function Attrs: mustprogress uwtable
define linkonce_odr noundef zeroext i1 @_ZNK5boost11multi_index6detail10index_baseIN5folly12TimeoutQueue5EventENS0_10indexed_byINS0_14ordered_uniqueINS0_6memberIS5_lXadL_ZNS5_2idEEEEEN4mpl_2naESB_EENS0_18ordered_non_uniqueINS8_IS5_lXadL_ZNS5_10expirationEEEEESB_SB_EESB_SB_SB_SB_SB_SB_SB_SB_SB_SB_SB_SB_SB_SB_SB_SB_SB_SB_EESaIS5_EE12final_empty_Ev(ptr noundef nonnull align 1 dereferenceable(1) %0) #0 comdat align 2 {
  %2 = alloca ptr, align 8
  store ptr %0, ptr %2, align 8, !tbaa !47
  %3 = load ptr, ptr %2, align 8
  %4 = call noundef nonnull align 8 dereferenceable(32) ptr @_ZNK5boost11multi_index6detail10index_baseIN5folly12TimeoutQueue5EventENS0_10indexed_byINS0_14ordered_uniqueINS0_6memberIS5_lXadL_ZNS5_2idEEEEEN4mpl_2naESB_EENS0_18ordered_non_uniqueINS8_IS5_lXadL_ZNS5_10expirationEEEEESB_SB_EESB_SB_SB_SB_SB_SB_SB_SB_SB_SB_SB_SB_SB_SB_SB_SB_SB_SB_EESaIS5_EE5finalEv(ptr noundef nonnull align 1 dereferenceable(1) %3)
  %5 = call noundef zeroext i1 @_ZNK5boost11multi_index21multi_index_containerIN5folly12TimeoutQueue5EventENS0_10indexed_byINS0_14ordered_uniqueINS0_6memberIS4_lXadL_ZNS4_2idEEEEEN4mpl_2naESA_EENS0_18ordered_non_uniqueINS7_IS4_lXadL_ZNS4_10expirationEEEEESA_SA_EESA_SA_SA_SA_SA_SA_SA_SA_SA_SA_SA_SA_SA_SA_SA_SA_SA_SA_EESaIS4_EE6empty_Ev(ptr noundef nonnull align 8 dereferenceable(32) %4)
  ret i1 %5
}

; Function Attrs: mustprogress uwtable
define linkonce_odr noundef ptr @_ZNK5boost14operators_impl15dereferenceableINS_11multi_index6detail19bidir_node_iteratorINS3_18ordered_index_nodeINS3_19null_augment_policyENS3_15index_node_baseIN5folly12TimeoutQueue5EventESaISA_EEEEEEEPKSA_NS0_13decrementableISE_NS0_15iterator_helperISt26bidirectional_iterator_tagSA_lSG_RSF_EEEEEptEv(ptr noundef nonnull align 1 dereferenceable(1) %0) #0 comdat align 2 {
  %2 = alloca ptr, align 8
  store ptr %0, ptr %2, align 8, !tbaa !129
  %3 = load ptr, ptr %2, align 8
  %4 = call noundef nonnull align 8 dereferenceable(56) ptr @_ZNK5boost11multi_index6detail19bidir_node_iteratorINS1_18ordered_index_nodeINS1_19null_augment_policyENS1_15index_node_baseIN5folly12TimeoutQueue5EventESaIS8_EEEEEEdeEv(ptr noundef nonnull align 8 dereferenceable(8) %3)
  %5 = call noundef ptr @_ZN5boost9addressofIKN5folly12TimeoutQueue5EventEEEPT_RS5_(ptr noundef nonnull align 8 dereferenceable(56) %4) #12
  ret ptr %5
}

; Function Attrs: mustprogress nounwind uwtable
define linkonce_odr ptr @_ZNK5boost11multi_index6detail18ordered_index_implINS0_6memberIN5folly12TimeoutQueue5EventElXadL_ZNS6_10expirationEEEEESt4lessIlENS1_9nth_layerILi2ES6_NS0_10indexed_byINS0_14ordered_uniqueINS3_IS6_lXadL_ZNS6_2idEEEEEN4mpl_2naESF_EENS0_18ordered_non_uniqueIS7_SF_SF_EESF_SF_SF_SF_SF_SF_SF_SF_SF_SF_SF_SF_SF_SF_SF_SF_SF_SF_EESaIS6_EEENS_3mpl7vector0ISF_EENS1_22ordered_non_unique_tagENS1_19null_augment_policyEE5beginEv(ptr noundef nonnull align 1 dereferenceable(2) %0) #2 comdat align 2 personality ptr @__gxx_personality_v0 {
  %2 = alloca %"class.boost::multi_index::detail::bidir_node_iterator.10", align 8
  %3 = alloca ptr, align 8
  store ptr %0, ptr %3, align 8, !tbaa !82
  %4 = load ptr, ptr %3, align 8
  %5 = invoke noundef ptr @_ZNK5boost11multi_index6detail18ordered_index_implINS0_6memberIN5folly12TimeoutQueue5EventElXadL_ZNS6_10expirationEEEEESt4lessIlENS1_9nth_layerILi2ES6_NS0_10indexed_byINS0_14ordered_uniqueINS3_IS6_lXadL_ZNS6_2idEEEEEN4mpl_2naESF_EENS0_18ordered_non_uniqueIS7_SF_SF_EESF_SF_SF_SF_SF_SF_SF_SF_SF_SF_SF_SF_SF_SF_SF_SF_SF_SF_EESaIS6_EEENS_3mpl7vector0ISF_EENS1_22ordered_non_unique_tagENS1_19null_augment_policyEE8leftmostEv(ptr noundef nonnull align 1 dereferenceable(2) %4)
          to label %6 unwind label %12

6:                                                ; preds = %1
  %7 = invoke ptr @_ZNK5boost11multi_index6detail18ordered_index_implINS0_6memberIN5folly12TimeoutQueue5EventElXadL_ZNS6_10expirationEEEEESt4lessIlENS1_9nth_layerILi2ES6_NS0_10indexed_byINS0_14ordered_uniqueINS3_IS6_lXadL_ZNS6_2idEEEEEN4mpl_2naESF_EENS0_18ordered_non_uniqueIS7_SF_SF_EESF_SF_SF_SF_SF_SF_SF_SF_SF_SF_SF_SF_SF_SF_SF_SF_SF_SF_EESaIS6_EEENS_3mpl7vector0ISF_EENS1_22ordered_non_unique_tagENS1_19null_augment_policyEE13make_iteratorEPNS1_18ordered_index_nodeISQ_NS1_15index_node_baseIS6_SK_EEEE(ptr noundef nonnull align 1 dereferenceable(2) %4, ptr noundef %5)
          to label %8 unwind label %12

8:                                                ; preds = %6
  %9 = getelementptr inbounds nuw %"class.boost::multi_index::detail::bidir_node_iterator.10", ptr %2, i32 0, i32 0
  store ptr %7, ptr %9, align 8
  %10 = getelementptr inbounds nuw %"class.boost::multi_index::detail::bidir_node_iterator.10", ptr %2, i32 0, i32 0
  %11 = load ptr, ptr %10, align 8
  ret ptr %11

12:                                               ; preds = %6, %1
  %13 = landingpad { ptr, i32 }
          catch ptr null
  %14 = extractvalue { ptr, i32 } %13, 0
  call void @__clang_call_terminate(ptr %14) #14
  unreachable
}

; Function Attrs: mustprogress nounwind uwtable
define linkonce_odr noundef nonnull align 1 dereferenceable(2) ptr @_ZNK5boost11multi_index21multi_index_containerIN5folly12TimeoutQueue5EventENS0_10indexed_byINS0_14ordered_uniqueINS0_6memberIS4_lXadL_ZNS4_2idEEEEEN4mpl_2naESA_EENS0_18ordered_non_uniqueINS7_IS4_lXadL_ZNS4_10expirationEEEEESA_SA_EESA_SA_SA_SA_SA_SA_SA_SA_SA_SA_SA_SA_SA_SA_SA_SA_SA_SA_EESaIS4_EE3getILi1EEERKNSH_9nth_indexIXT_EE4typeEv(ptr noundef nonnull align 8 dereferenceable(32) %0) #2 comdat align 2 {
  %2 = alloca ptr, align 8
  store ptr %0, ptr %2, align 8, !tbaa !62
  %3 = load ptr, ptr %2, align 8
  %4 = getelementptr inbounds i8, ptr %3, i64 16
  ret ptr %4
}

; Function Attrs: mustprogress nounwind uwtable
define linkonce_odr noundef i64 @_ZNSt14numeric_limitsIlE3maxEv() #2 comdat align 2 {
  ret i64 9223372036854775807
}

; Function Attrs: mustprogress nounwind uwtable
define linkonce_odr noundef zeroext i1 @_ZNK5boost11multi_index6detail18ordered_index_implINS0_6memberIN5folly12TimeoutQueue5EventElXadL_ZNS6_2idEEEEESt4lessIlENS1_9nth_layerILi1ES6_NS0_10indexed_byINS0_14ordered_uniqueIS7_N4mpl_2naESE_EENS0_18ordered_non_uniqueINS3_IS6_lXadL_ZNS6_10expirationEEEEESE_SE_EESE_SE_SE_SE_SE_SE_SE_SE_SE_SE_SE_SE_SE_SE_SE_SE_SE_SE_EESaIS6_EEENS_3mpl7vector0ISE_EENS1_18ordered_unique_tagENS1_19null_augment_policyEE5emptyEv(ptr noundef nonnull align 1 dereferenceable(4) %0) #2 comdat align 2 personality ptr @__gxx_personality_v0 {
  %2 = alloca ptr, align 8
  store ptr %0, ptr %2, align 8, !tbaa !36
  %3 = load ptr, ptr %2, align 8
  %4 = invoke noundef zeroext i1 @_ZNK5boost11multi_index6detail10index_baseIN5folly12TimeoutQueue5EventENS0_10indexed_byINS0_14ordered_uniqueINS0_6memberIS5_lXadL_ZNS5_2idEEEEEN4mpl_2naESB_EENS0_18ordered_non_uniqueINS8_IS5_lXadL_ZNS5_10expirationEEEEESB_SB_EESB_SB_SB_SB_SB_SB_SB_SB_SB_SB_SB_SB_SB_SB_SB_SB_SB_SB_EESaIS5_EE12final_empty_Ev(ptr noundef nonnull align 1 dereferenceable(1) %3)
          to label %5 unwind label %6

5:                                                ; preds = %1
  ret i1 %4

6:                                                ; preds = %1
  %7 = landingpad { ptr, i32 }
          catch ptr null
  %8 = extractvalue { ptr, i32 } %7, 0
  call void @__clang_call_terminate(ptr %8) #14
  unreachable
}

; Function Attrs: mustprogress uwtable
define noundef i64 @_ZNK5folly12TimeoutQueue14nextExpirationEv(ptr noundef nonnull align 8 dereferenceable(40) %0) #0 align 2 {
  %2 = alloca ptr, align 8
  %3 = alloca %"class.boost::multi_index::detail::bidir_node_iterator.10", align 8
  store ptr %0, ptr %2, align 8, !tbaa !7
  %4 = load ptr, ptr %2, align 8
  %5 = getelementptr inbounds nuw %"class.folly::TimeoutQueue", ptr %4, i32 0, i32 0
  %6 = getelementptr inbounds i8, ptr %5, i64 16
  %7 = call noundef zeroext i1 @_ZNK5boost11multi_index6detail18ordered_index_implINS0_6memberIN5folly12TimeoutQueue5EventElXadL_ZNS6_2idEEEEESt4lessIlENS1_9nth_layerILi1ES6_NS0_10indexed_byINS0_14ordered_uniqueIS7_N4mpl_2naESE_EENS0_18ordered_non_uniqueINS3_IS6_lXadL_ZNS6_10expirationEEEEESE_SE_EESE_SE_SE_SE_SE_SE_SE_SE_SE_SE_SE_SE_SE_SE_SE_SE_SE_SE_EESaIS6_EEENS_3mpl7vector0ISE_EENS1_18ordered_unique_tagENS1_19null_augment_policyEE5emptyEv(ptr noundef nonnull align 1 dereferenceable(4) %6) #12
  call void @llvm.lifetime.start.p0(i64 8, ptr %3) #12
  br i1 %7, label %8, label %10

8:                                                ; preds = %1
  %9 = call noundef i64 @_ZNSt14numeric_limitsIlE3maxEv() #12
  br label %18

10:                                               ; preds = %1
  %11 = getelementptr inbounds nuw %"class.folly::TimeoutQueue", ptr %4, i32 0, i32 0
  %12 = call noundef nonnull align 1 dereferenceable(2) ptr @_ZNK5boost11multi_index21multi_index_containerIN5folly12TimeoutQueue5EventENS0_10indexed_byINS0_14ordered_uniqueINS0_6memberIS4_lXadL_ZNS4_2idEEEEEN4mpl_2naESA_EENS0_18ordered_non_uniqueINS7_IS4_lXadL_ZNS4_10expirationEEEEESA_SA_EESA_SA_SA_SA_SA_SA_SA_SA_SA_SA_SA_SA_SA_SA_SA_SA_SA_SA_EESaIS4_EE3getILi1EEERKNSH_9nth_indexIXT_EE4typeEv(ptr noundef nonnull align 8 dereferenceable(32) %11) #12
  %13 = call ptr @_ZNK5boost11multi_index6detail18ordered_index_implINS0_6memberIN5folly12TimeoutQueue5EventElXadL_ZNS6_10expirationEEEEESt4lessIlENS1_9nth_layerILi2ES6_NS0_10indexed_byINS0_14ordered_uniqueINS3_IS6_lXadL_ZNS6_2idEEEEEN4mpl_2naESF_EENS0_18ordered_non_uniqueIS7_SF_SF_EESF_SF_SF_SF_SF_SF_SF_SF_SF_SF_SF_SF_SF_SF_SF_SF_SF_SF_EESaIS6_EEENS_3mpl7vector0ISF_EENS1_22ordered_non_unique_tagENS1_19null_augment_policyEE5beginEv(ptr noundef nonnull align 1 dereferenceable(2) %12) #12
  %14 = getelementptr inbounds nuw %"class.boost::multi_index::detail::bidir_node_iterator.10", ptr %3, i32 0, i32 0
  store ptr %13, ptr %14, align 8
  %15 = call noundef ptr @_ZNK5boost14operators_impl15dereferenceableINS_11multi_index6detail19bidir_node_iteratorINS3_18ordered_index_nodeINS3_19null_augment_policyENS3_15index_node_baseIN5folly12TimeoutQueue5EventESaISA_EEEEEEEPKSA_NS0_13decrementableISE_NS0_15iterator_helperISt26bidirectional_iterator_tagSA_lSG_RSF_EEEEEptEv(ptr noundef nonnull align 1 dereferenceable(1) %3)
  %16 = getelementptr inbounds nuw %"struct.folly::TimeoutQueue::Event", ptr %15, i32 0, i32 1
  %17 = load i64, ptr %16, align 8, !tbaa !34
  br label %18

18:                                               ; preds = %10, %8
  %19 = phi i64 [ %9, %8 ], [ %17, %10 ]
  call void @llvm.lifetime.end.p0(i64 8, ptr %3) #12
  ret i64 %19
}