; Function Attrs: mustprogress nofree norecurse nosync nounwind willreturn memory(read, inaccessiblemem: none) uwtable
define noundef i64 @_ZNK5folly12TimeoutQueue14nextExpirationEv(ptr noundef nonnull readonly align 8 captures(none) dereferenceable(40) %0) local_unnamed_addr #8 align 2 personality ptr @__gxx_personality_v0 {
  %2 = getelementptr inbounds nuw i8, ptr %0, i64 24
  %3 = load i64, ptr %2, align 8, !tbaa !36
  %4 = icmp eq i64 %3, 0
  br i1 %4, label %15, label %5

5:                                                ; preds = %1
  %6 = getelementptr inbounds nuw i8, ptr %0, i64 8
  %7 = load ptr, ptr %6, align 8, !tbaa !38
  %8 = getelementptr inbounds nuw i8, ptr %7, i64 64
  %9 = load ptr, ptr %8, align 8, !tbaa !39
  %10 = icmp eq ptr %9, null
  %11 = getelementptr inbounds i8, ptr %9, i64 -56
  %12 = select i1 %10, ptr null, ptr %11
  %13 = getelementptr inbounds nuw i8, ptr %12, i64 8
  %14 = load i64, ptr %13, align 8, !tbaa !29
  br label %15

15:                                               ; preds = %1, %5
  %16 = phi i64 [ %14, %5 ], [ 9223372036854775807, %1 ]
  ret i64 %16
}